target datalayout = "e-m:e-p270:32:32-p271:32:32-p272:64:64-i64:64-i128:128-f80:128-n8:16:32:64-S128"
target triple = "x86_64-pc-linux-gnu"

%struct._zval_struct = type { %union._zend_value, %union.anon, %union.anon.2 }
%union._zend_value = type { i64 }
%union.anon = type { i32 }
%union.anon.2 = type { i32 }
%struct._zend_array = type { %struct._zend_refcounted_h, %union.anon.4, i32, %union.anon.6, i32, i32, i32, i32, i64, ptr }
%struct._zend_refcounted_h = type { i32, %union.anon.3 }
%union.anon.3 = type { i32 }
%union.anon.4 = type { i32 }
%union.anon.6 = type { ptr }
%struct._php_basic_globals = type { ptr, %struct._zend_array, ptr, ptr, i8, ptr, [256 x i8], i64, %struct._zend_fcall_info, %struct._zend_fcall_info_cache, ptr, %struct._zval_struct, %struct._zval_struct, i64, i64, i64, i64, ptr, ptr, %struct._php_stream_statbuf, %struct._php_stream_statbuf, ptr, i32, %struct.anon.8, %struct.anon.9, %struct.url_adapt_state_ex_t, %struct._zend_array, %struct.url_adapt_state_ex_t, %struct._zend_array, ptr, i32, i64 }
%struct._zend_fcall_info = type { i64, %struct._zval_struct, ptr, ptr, ptr, i32, ptr }
%struct._zend_fcall_info_cache = type { ptr, ptr, ptr, ptr, ptr }
%struct._php_stream_statbuf = type { %struct.stat }
%struct.stat = type { i64, i64, i64, i32, i32, i32, i32, i64, i64, i64, i64, %struct.timespec, %struct.timespec, %struct.timespec, [3 x i64] }
%struct.timespec = type { i64, i64 }
%struct.anon.8 = type { ptr, i32 }
%struct.anon.9 = type { ptr, i32 }
%struct.url_adapt_state_ex_t = type { %struct.smart_str, %struct.smart_str, %struct.smart_str, %struct.smart_str, %struct.smart_str, %struct.smart_str, %struct.smart_str, i32, ptr, i32, i32, %struct.smart_str, i32, i32, ptr }
%struct.smart_str = type { ptr, i64 }

@basic_globals = external global %struct._php_basic_globals, align 8

; Function Attrs: nounwind uwtable
define hidden i32 @zm_deactivate_user_filters(i32 noundef %0, i32 noundef %1) #0 {
  %3 = alloca i32, align 4
  %4 = alloca i32, align 4
  store i32 %0, ptr %3, align 4
  store i32 %1, ptr %4, align 4
  %5 = load ptr, ptr getelementptr inbounds (%struct._php_basic_globals, ptr @basic_globals, i32 0, i32 29), align 8
  %6 = icmp ne ptr %5, null
  br i1 %6, label %7, label %10

7:                                                ; preds = %2
  %8 = load ptr, ptr getelementptr inbounds (%struct._php_basic_globals, ptr @basic_globals, i32 0, i32 29), align 8
  call void @zend_hash_destroy(ptr noundef %8)
  %9 = load ptr, ptr getelementptr inbounds (%struct._php_basic_globals, ptr @basic_globals, i32 0, i32 29), align 8
  call void @_efree(ptr noundef %9)
  store ptr null, ptr getelementptr inbounds (%struct._php_basic_globals, ptr @basic_globals, i32 0, i32 29), align 8
  br label %10

10:                                               ; preds = %7, %2
  ret i32 0
}