; Function Attrs: nounwind uwtable
define hidden noundef i32 @zm_deactivate_user_filters(i32 noundef %0, i32 noundef %1) local_unnamed_addr #0 {
  %3 = load ptr, ptr getelementptr inbounds (%struct._php_basic_globals, ptr @basic_globals, i64 0, i32 29), align 8
  %.not = icmp eq ptr %3, null
  br i1 %.not, label %6, label %4

4:                                                ; preds = %2
  tail call void @zend_hash_destroy(ptr noundef nonnull %3) #11
  %5 = load ptr, ptr getelementptr inbounds (%struct._php_basic_globals, ptr @basic_globals, i64 0, i32 29), align 8
  tail call void @_efree(ptr noundef %5) #11
  store ptr null, ptr getelementptr inbounds (%struct._php_basic_globals, ptr @basic_globals, i64 0, i32 29), align 8
  br label %6

6:                                                ; preds = %4, %2
  ret i32 0
}